target datalayout = "e-m:e-p270:32:32-p271:32:32-p272:64:64-i64:64-i128:128-f80:128-n8:16:32:64-S128"
target triple = "x86_64-pc-linux-gnu"

%struct.mbedtls_md_info_t = type { ptr, i32, i8, i8 }
%struct.mbedtls_md_context_t = type { ptr, ptr, ptr }

; Function Attrs: mustprogress uwtable
define hidden void @mbedtls_md_free(ptr noundef %0) #1 {
  %2 = alloca ptr, align 8
  store ptr %0, ptr %2, align 8, !tbaa !10
  %3 = load ptr, ptr %2, align 8, !tbaa !10
  %4 = icmp eq ptr %3, null
  br i1 %4, label %10, label %5

5:                                                ; preds = %1
  %6 = load ptr, ptr %2, align 8, !tbaa !10
  %7 = getelementptr inbounds nuw %struct.mbedtls_md_context_t, ptr %6, i32 0, i32 0
  %8 = load ptr, ptr %7, align 8, !tbaa !12
  %9 = icmp eq ptr %8, null
  br i1 %9, label %10, label %11

10:                                               ; preds = %5, %1
  br label %61

11:                                               ; preds = %5
  %12 = load ptr, ptr %2, align 8, !tbaa !10
  %13 = getelementptr inbounds nuw %struct.mbedtls_md_context_t, ptr %12, i32 0, i32 1
  %14 = load ptr, ptr %13, align 8, !tbaa !15
  %15 = icmp ne ptr %14, null
  br i1 %15, label %16, label %39

16:                                               ; preds = %11
  %17 = load ptr, ptr %2, align 8, !tbaa !10
  %18 = getelementptr inbounds nuw %struct.mbedtls_md_context_t, ptr %17, i32 0, i32 0
  %19 = load ptr, ptr %18, align 8, !tbaa !12
  %20 = getelementptr inbounds nuw %struct.mbedtls_md_info_t, ptr %19, i32 0, i32 1
  %21 = load i32, ptr %20, align 8, !tbaa !16
  switch i32 %21, label %34 [
    i32 2, label %22
    i32 3, label %26
    i32 4, label %30
  ]

22:                                               ; preds = %16
  %23 = load ptr, ptr %2, align 8, !tbaa !10
  %24 = getelementptr inbounds nuw %struct.mbedtls_md_context_t, ptr %23, i32 0, i32 1
  %25 = load ptr, ptr %24, align 8, !tbaa !15
  call void @mbedtls_sha1_free(ptr noundef %25)
  br label %35

26:                                               ; preds = %16
  %27 = load ptr, ptr %2, align 8, !tbaa !10
  %28 = getelementptr inbounds nuw %struct.mbedtls_md_context_t, ptr %27, i32 0, i32 1
  %29 = load ptr, ptr %28, align 8, !tbaa !15
  call void @mbedtls_sha256_free(ptr noundef %29)
  br label %35

30:                                               ; preds = %16
  %31 = load ptr, ptr %2, align 8, !tbaa !10
  %32 = getelementptr inbounds nuw %struct.mbedtls_md_context_t, ptr %31, i32 0, i32 1
  %33 = load ptr, ptr %32, align 8, !tbaa !15
  call void @mbedtls_sha256_free(ptr noundef %33)
  br label %35

34:                                               ; preds = %16
  br label %35

35:                                               ; preds = %34, %30, %26, %22
  %36 = load ptr, ptr %2, align 8, !tbaa !10
  %37 = getelementptr inbounds nuw %struct.mbedtls_md_context_t, ptr %36, i32 0, i32 1
  %38 = load ptr, ptr %37, align 8, !tbaa !15
  call void @free(ptr noundef %38) #9
  br label %39

39:                                               ; preds = %35, %11
  %40 = load ptr, ptr %2, align 8, !tbaa !10
  %41 = getelementptr inbounds nuw %struct.mbedtls_md_context_t, ptr %40, i32 0, i32 2
  %42 = load ptr, ptr %41, align 8, !tbaa !18
  %43 = icmp ne ptr %42, null
  br i1 %43, label %44, label %59

44:                                               ; preds = %39
  %45 = load ptr, ptr %2, align 8, !tbaa !10
  %46 = getelementptr inbounds nuw %struct.mbedtls_md_context_t, ptr %45, i32 0, i32 2
  %47 = load ptr, ptr %46, align 8, !tbaa !18
  %48 = load ptr, ptr %2, align 8, !tbaa !10
  %49 = getelementptr inbounds nuw %struct.mbedtls_md_context_t, ptr %48, i32 0, i32 0
  %50 = load ptr, ptr %49, align 8, !tbaa !12
  %51 = getelementptr inbounds nuw %struct.mbedtls_md_info_t, ptr %50, i32 0, i32 3
  %52 = load i8, ptr %51, align 1, !tbaa !19
  %53 = zext i8 %52 to i32
  %54 = mul nsw i32 2, %53
  %55 = sext i32 %54 to i64
  call void @mbedtls_platform_zeroize(ptr noundef %47, i64 noundef %55)
  %56 = load ptr, ptr %2, align 8, !tbaa !10
  %57 = getelementptr inbounds nuw %struct.mbedtls_md_context_t, ptr %56, i32 0, i32 2
  %58 = load ptr, ptr %57, align 8, !tbaa !18
  call void @free(ptr noundef %58) #9
  br label %59

59:                                               ; preds = %44, %39
  %60 = load ptr, ptr %2, align 8, !tbaa !10
  call void @mbedtls_platform_zeroize(ptr noundef %60, i64 noundef 24)
  br label %61

61:                                               ; preds = %59, %10
  ret void
}