; Function Attrs: mustprogress uwtable
define hidden void @mbedtls_md_free(ptr noundef %0) local_unnamed_addr #5 {
  %2 = icmp eq ptr %0, null
  br i1 %2, label %28, label %3

3:                                                ; preds = %1
  %4 = load ptr, ptr %0, align 8, !tbaa !3
  %5 = icmp eq ptr %4, null
  br i1 %5, label %28, label %6

6:                                                ; preds = %3
  %7 = getelementptr inbounds nuw i8, ptr %0, i64 8
  %8 = load ptr, ptr %7, align 8, !tbaa !9
  %.not = icmp eq ptr %8, null
  br i1 %.not, label %17, label %9

9:                                                ; preds = %6
  %10 = getelementptr inbounds nuw i8, ptr %4, i64 8
  %11 = load i32, ptr %10, align 8, !tbaa !10
  switch i32 %11, label %15 [
    i32 2, label %12
    i32 3, label %13
    i32 4, label %14
  ]

12:                                               ; preds = %9
  tail call void @mbedtls_sha1_free(ptr noundef nonnull %8)
  br label %15

13:                                               ; preds = %9
  tail call void @mbedtls_sha256_free(ptr noundef nonnull %8)
  br label %15

14:                                               ; preds = %9
  tail call void @mbedtls_sha256_free(ptr noundef nonnull %8)
  br label %15

15:                                               ; preds = %9, %14, %13, %12
  %16 = load ptr, ptr %7, align 8, !tbaa !9
  tail call void @free(ptr noundef %16) #12
  br label %17

17:                                               ; preds = %15, %6
  %18 = getelementptr inbounds nuw i8, ptr %0, i64 16
  %19 = load ptr, ptr %18, align 8, !tbaa !14
  %.not16 = icmp eq ptr %19, null
  br i1 %.not16, label %27, label %20

20:                                               ; preds = %17
  %21 = load ptr, ptr %0, align 8, !tbaa !3
  %22 = getelementptr inbounds nuw i8, ptr %21, i64 13
  %23 = load i8, ptr %22, align 1, !tbaa !15
  %24 = zext i8 %23 to i64
  %25 = shl nuw nsw i64 %24, 1
  tail call void @mbedtls_platform_zeroize(ptr noundef nonnull %19, i64 noundef %25)
  %26 = load ptr, ptr %18, align 8, !tbaa !14
  tail call void @free(ptr noundef %26) #12
  br label %27

27:                                               ; preds = %20, %17
  tail call void @mbedtls_platform_zeroize(ptr noundef nonnull %0, i64 noundef 24)
  br label %28

28:                                               ; preds = %1, %3, %27
  ret void
}